target datalayout = "e-m:e-p270:32:32-p271:32:32-p272:64:64-i64:64-i128:128-f80:128-n8:16:32:64-S128"
target triple = "x86_64-pc-linux-gnu"

%struct.DdManager = type { %struct.DdNode, ptr, ptr, ptr, ptr, ptr, ptr, ptr, i32, i32, double, double, double, i32, i32, i32, i32, i32, i32, ptr, ptr, %struct.DdSubtable, i32, i32, i32, i32, i32, i32, i32, double, i32, i32, i32, ptr, i64, double, i32, ptr, ptr, ptr, ptr, ptr, ptr, ptr, i32, ptr, ptr, ptr, ptr, ptr, ptr, i32, i32, i32, double, i32, i32, i32, i32, double, double, i32, i32, i32, i32, i32, i32, i32, i32, i32, ptr, ptr, i32, i32, i32, i32, i32, i32, ptr, ptr, ptr, ptr, ptr, ptr, ptr, ptr, i32, i64, i64, i64, i32, i64, i64, double, double, double, double, double, double, i32, ptr, ptr, i64 }
%struct.DdNode = type { i32, i32, ptr, %union.anon, i64 }
%union.anon = type { %struct.DdChildren }
%struct.DdChildren = type { ptr, ptr }
%struct.DdSubtable = type { ptr, i32, i32, i32, i32, i32, i32, i32, i32, i32, i32, i32 }

; Function Attrs: nounwind uwtable
define ptr @Cudd_bddComputeCube(ptr noundef %0, ptr noundef %1, ptr noundef %2, i32 noundef %3) #0 {
  %5 = alloca ptr, align 8
  %6 = alloca ptr, align 8
  %7 = alloca ptr, align 8
  %8 = alloca ptr, align 8
  %9 = alloca i32, align 4
  %10 = alloca ptr, align 8
  %11 = alloca ptr, align 8
  %12 = alloca i32, align 4
  store ptr %0, ptr %6, align 8
  store ptr %1, ptr %7, align 8
  store ptr %2, ptr %8, align 8
  store i32 %3, ptr %9, align 4
  %13 = load ptr, ptr %6, align 8
  %14 = getelementptr inbounds %struct.DdManager, ptr %13, i32 0, i32 1
  %15 = load ptr, ptr %14, align 8
  store ptr %15, ptr %10, align 8
  %16 = load ptr, ptr %10, align 8
  %17 = ptrtoint ptr %16 to i64
  %18 = and i64 %17, -2
  %19 = inttoptr i64 %18 to ptr
  %20 = getelementptr inbounds %struct.DdNode, ptr %19, i32 0, i32 1
  %21 = load i32, ptr %20, align 4
  %22 = add i32 %21, 1
  store i32 %22, ptr %20, align 4
  %23 = load i32, ptr %9, align 4
  %24 = sub nsw i32 %23, 1
  store i32 %24, ptr %12, align 4
  br label %25

25:                                               ; preds = %76, %4
  %26 = load i32, ptr %12, align 4
  %27 = icmp sge i32 %26, 0
  br i1 %27, label %28, label %79

28:                                               ; preds = %25
  %29 = load ptr, ptr %8, align 8
  %30 = icmp eq ptr %29, null
  br i1 %30, label %38, label %31

31:                                               ; preds = %28
  %32 = load ptr, ptr %8, align 8
  %33 = load i32, ptr %12, align 4
  %34 = sext i32 %33 to i64
  %35 = getelementptr inbounds i32, ptr %32, i64 %34
  %36 = load i32, ptr %35, align 4
  %37 = icmp ne i32 %36, 0
  br i1 %37, label %38, label %47

38:                                               ; preds = %31, %28
  %39 = load ptr, ptr %6, align 8
  %40 = load ptr, ptr %7, align 8
  %41 = load i32, ptr %12, align 4
  %42 = sext i32 %41 to i64
  %43 = getelementptr inbounds ptr, ptr %40, i64 %42
  %44 = load ptr, ptr %43, align 8
  %45 = load ptr, ptr %10, align 8
  %46 = call ptr @Cudd_bddAnd(ptr noundef %39, ptr noundef %44, ptr noundef %45)
  store ptr %46, ptr %11, align 8
  br label %59

47:                                               ; preds = %31
  %48 = load ptr, ptr %6, align 8
  %49 = load ptr, ptr %7, align 8
  %50 = load i32, ptr %12, align 4
  %51 = sext i32 %50 to i64
  %52 = getelementptr inbounds ptr, ptr %49, i64 %51
  %53 = load ptr, ptr %52, align 8
  %54 = ptrtoint ptr %53 to i64
  %55 = xor i64 %54, 1
  %56 = inttoptr i64 %55 to ptr
  %57 = load ptr, ptr %10, align 8
  %58 = call ptr @Cudd_bddAnd(ptr noundef %48, ptr noundef %56, ptr noundef %57)
  store ptr %58, ptr %11, align 8
  br label %59

59:                                               ; preds = %47, %38
  %60 = load ptr, ptr %11, align 8
  %61 = icmp eq ptr %60, null
  br i1 %61, label %62, label %65

62:                                               ; preds = %59
  %63 = load ptr, ptr %6, align 8
  %64 = load ptr, ptr %10, align 8
  call void @Cudd_RecursiveDeref(ptr noundef %63, ptr noundef %64)
  store ptr null, ptr %5, align 8
  br label %88

65:                                               ; preds = %59
  %66 = load ptr, ptr %11, align 8
  %67 = ptrtoint ptr %66 to i64
  %68 = and i64 %67, -2
  %69 = inttoptr i64 %68 to ptr
  %70 = getelementptr inbounds %struct.DdNode, ptr %69, i32 0, i32 1
  %71 = load i32, ptr %70, align 4
  %72 = add i32 %71, 1
  store i32 %72, ptr %70, align 4
  %73 = load ptr, ptr %6, align 8
  %74 = load ptr, ptr %10, align 8
  call void @Cudd_RecursiveDeref(ptr noundef %73, ptr noundef %74)
  %75 = load ptr, ptr %11, align 8
  store ptr %75, ptr %10, align 8
  br label %76

76:                                               ; preds = %65
  %77 = load i32, ptr %12, align 4
  %78 = add nsw i32 %77, -1
  store i32 %78, ptr %12, align 4
  br label %25, !llvm.loop !69

79:                                               ; preds = %25
  %80 = load ptr, ptr %10, align 8
  %81 = ptrtoint ptr %80 to i64
  %82 = and i64 %81, -2
  %83 = inttoptr i64 %82 to ptr
  %84 = getelementptr inbounds %struct.DdNode, ptr %83, i32 0, i32 1
  %85 = load i32, ptr %84, align 4
  %86 = add i32 %85, -1
  store i32 %86, ptr %84, align 4
  %87 = load ptr, ptr %10, align 8
  store ptr %87, ptr %5, align 8
  br label %88

88:                                               ; preds = %79, %62
  %89 = load ptr, ptr %5, align 8
  ret ptr %89
}