; Function Attrs: nounwind uwtable
define ptr @Cudd_bddComputeCube(ptr noundef %0, ptr noundef readonly captures(none) %1, ptr noundef readonly %2, i32 noundef %3) local_unnamed_addr #0 {
  %5 = getelementptr inbounds nuw i8, ptr %0, i64 40
  %6 = load ptr, ptr %5, align 8
  %7 = ptrtoint ptr %6 to i64
  %8 = and i64 %7, -2
  %9 = inttoptr i64 %8 to ptr
  %10 = getelementptr inbounds nuw i8, ptr %9, i64 4
  %11 = load i32, ptr %10, align 4
  %12 = add i32 %11, 1
  store i32 %12, ptr %10, align 4
  %13 = icmp sgt i32 %3, 0
  br i1 %13, label %.lr.ph, label %._crit_edge

.lr.ph:                                           ; preds = %4
  %.030 = add nsw i32 %3, -1
  %14 = icmp eq ptr %2, null
  %15 = zext nneg i32 %.030 to i64
  br i1 %14, label %.lr.ph.split.us, label %.lr.ph.split

.lr.ph.split.us:                                  ; preds = %.lr.ph, %20
  %indvars.iv41 = phi i64 [ %indvars.iv.next42, %20 ], [ %15, %.lr.ph ]
  %.02631.us = phi ptr [ %18, %20 ], [ %6, %.lr.ph ]
  %16 = getelementptr inbounds nuw ptr, ptr %1, i64 %indvars.iv41
  %17 = load ptr, ptr %16, align 8
  %18 = tail call ptr @Cudd_bddAnd(ptr noundef %0, ptr noundef %17, ptr noundef %.02631.us) #23
  %19 = icmp eq ptr %18, null
  br i1 %19, label %.split.us, label %20

20:                                               ; preds = %.lr.ph.split.us
  %21 = ptrtoint ptr %18 to i64
  %22 = and i64 %21, -2
  %23 = inttoptr i64 %22 to ptr
  %24 = getelementptr inbounds nuw i8, ptr %23, i64 4
  %25 = load i32, ptr %24, align 4
  %26 = add i32 %25, 1
  store i32 %26, ptr %24, align 4
  tail call void @Cudd_RecursiveDeref(ptr noundef %0, ptr noundef %.02631.us) #23
  %indvars.iv.next42 = add nsw i64 %indvars.iv41, -1
  %27 = icmp sgt i64 %indvars.iv41, 0
  br i1 %27, label %.lr.ph.split.us, label %._crit_edge, !llvm.loop !60

.lr.ph.split:                                     ; preds = %.lr.ph, %37
  %indvars.iv = phi i64 [ %indvars.iv.next, %37 ], [ %15, %.lr.ph ]
  %.02631 = phi ptr [ %35, %37 ], [ %6, %.lr.ph ]
  %28 = getelementptr inbounds nuw i32, ptr %2, i64 %indvars.iv
  %29 = load i32, ptr %28, align 4
  %.not = icmp eq i32 %29, 0
  %30 = getelementptr inbounds nuw ptr, ptr %1, i64 %indvars.iv
  %31 = load ptr, ptr %30, align 8
  %32 = ptrtoint ptr %31 to i64
  %33 = xor i64 %32, 1
  %34 = inttoptr i64 %33 to ptr
  %.sink = select i1 %.not, ptr %34, ptr %31
  %35 = tail call ptr @Cudd_bddAnd(ptr noundef %0, ptr noundef %.sink, ptr noundef %.02631) #23
  %36 = icmp eq ptr %35, null
  br i1 %36, label %.split.us, label %37

.split.us:                                        ; preds = %.lr.ph.split, %.lr.ph.split.us
  %.us-phi = phi ptr [ %.02631.us, %.lr.ph.split.us ], [ %.02631, %.lr.ph.split ]
  tail call void @Cudd_RecursiveDeref(ptr noundef %0, ptr noundef %.us-phi) #23
  br label %48

37:                                               ; preds = %.lr.ph.split
  %38 = ptrtoint ptr %35 to i64
  %39 = and i64 %38, -2
  %40 = inttoptr i64 %39 to ptr
  %41 = getelementptr inbounds nuw i8, ptr %40, i64 4
  %42 = load i32, ptr %41, align 4
  %43 = add i32 %42, 1
  store i32 %43, ptr %41, align 4
  tail call void @Cudd_RecursiveDeref(ptr noundef %0, ptr noundef %.02631) #23
  %indvars.iv.next = add nsw i64 %indvars.iv, -1
  %44 = icmp sgt i64 %indvars.iv, 0
  br i1 %44, label %.lr.ph.split, label %._crit_edge, !llvm.loop !60

._crit_edge:                                      ; preds = %37, %20, %4
  %.pre-phi45 = phi ptr [ %9, %4 ], [ %23, %20 ], [ %40, %37 ]
  %.026.lcssa = phi ptr [ %6, %4 ], [ %18, %20 ], [ %35, %37 ]
  %45 = getelementptr inbounds nuw i8, ptr %.pre-phi45, i64 4
  %46 = load i32, ptr %45, align 4
  %47 = add i32 %46, -1
  store i32 %47, ptr %45, align 4
  br label %48

48:                                               ; preds = %._crit_edge, %.split.us
  %.027 = phi ptr [ null, %.split.us ], [ %.026.lcssa, %._crit_edge ]
  ret ptr %.027
}